	.text
	.file	"test.c"
	.globl	user_compare                    # -- Begin function user_compare
	.p2align	4, 0x90
	.type	user_compare,@function
user_compare:                           # @user_compare
.Lfunc_begin0:
	.file	1 "/mnt/c/Dev/AdventOfCode2015_x86_64_assembly" "test.c"
	.loc	1 10 0                          # test.c:10:0
	.cfi_startproc
# %bb.0:
	pushq	%rbp
	.cfi_def_cfa_offset 16
	.cfi_offset %rbp, -16
	movq	%rsp, %rbp
	.cfi_def_cfa_register %rbp
	subq	$48, %rsp
	movq	%rdi, -8(%rbp)
	movq	%rsi, -16(%rbp)
	movq	%rdx, -24(%rbp)
.Ltmp0:
	.loc	1 11 29 prologue_end            # test.c:11:29
	movq	-8(%rbp), %rax
	.loc	1 11 24 is_stmt 0               # test.c:11:24
	movq	%rax, -32(%rbp)
	.loc	1 12 29 is_stmt 1               # test.c:12:29
	movq	-16(%rbp), %rax
	.loc	1 12 24 is_stmt 0               # test.c:12:24
	movq	%rax, -40(%rbp)
	.loc	1 13 19 is_stmt 1               # test.c:13:19
	movq	-32(%rbp), %rax
	.loc	1 13 23 is_stmt 0               # test.c:13:23
	movq	(%rax), %rdi
	.loc	1 13 29                         # test.c:13:29
	movq	-40(%rbp), %rax
	.loc	1 13 33                         # test.c:13:33
	movq	(%rax), %rsi
	.loc	1 13 12                         # test.c:13:12
	callq	strcmp
	.loc	1 13 5                          # test.c:13:5
	addq	$48, %rsp
	popq	%rbp
	.cfi_def_cfa %rsp, 8
	retq
.Ltmp1:
.Lfunc_end0:
	.size	user_compare, .Lfunc_end0-user_compare
	.cfi_endproc
                                        # -- End function
	.globl	user_iter                       # -- Begin function user_iter
	.p2align	4, 0x90
	.type	user_iter,@function
user_iter:                              # @user_iter
.Lfunc_begin1:
	.loc	1 16 0 is_stmt 1                # test.c:16:0
	.cfi_startproc
# %bb.0:
	pushq	%rbp
	.cfi_def_cfa_offset 16
	.cfi_offset %rbp, -16
	movq	%rsp, %rbp
	.cfi_def_cfa_register %rbp
	subq	$32, %rsp
	movq	%rdi, -8(%rbp)
	movq	%rsi, -16(%rbp)
.Ltmp2:
	.loc	1 17 31 prologue_end            # test.c:17:31
	movq	-8(%rbp), %rax
	.loc	1 17 24 is_stmt 0               # test.c:17:24
	movq	%rax, -24(%rbp)
	.loc	1 18 29 is_stmt 1               # test.c:18:29
	movq	-24(%rbp), %rax
	.loc	1 18 35 is_stmt 0               # test.c:18:35
	movq	(%rax), %rsi
	.loc	1 18 41                         # test.c:18:41
	movq	-24(%rbp), %rax
	.loc	1 18 47                         # test.c:18:47
	movl	8(%rax), %edx
	.loc	1 18 5                          # test.c:18:5
	movabsq	$.L.str, %rdi
	movb	$0, %al
	callq	printf
	.loc	1 19 5 is_stmt 1                # test.c:19:5
	movb	$1, %al
	andb	$1, %al
	movzbl	%al, %eax
	addq	$32, %rsp
	popq	%rbp
	.cfi_def_cfa %rsp, 8
	retq
.Ltmp3:
.Lfunc_end1:
	.size	user_iter, .Lfunc_end1-user_iter
	.cfi_endproc
                                        # -- End function
	.globl	user_hash                       # -- Begin function user_hash
	.p2align	4, 0x90
	.type	user_hash,@function
user_hash:                              # @user_hash
.Lfunc_begin2:
	.loc	1 22 0                          # test.c:22:0
	.cfi_startproc
# %bb.0:
	pushq	%rbp
	.cfi_def_cfa_offset 16
	.cfi_offset %rbp, -16
	movq	%rsp, %rbp
	.cfi_def_cfa_register %rbp
	subq	$48, %rsp
	movq	%rdi, -8(%rbp)
	movq	%rsi, -16(%rbp)
	movq	%rdx, -24(%rbp)
.Ltmp4:
	.loc	1 23 31 prologue_end            # test.c:23:31
	movq	-8(%rbp), %rax
	.loc	1 23 24 is_stmt 0               # test.c:23:24
	movq	%rax, -32(%rbp)
	.loc	1 24 24 is_stmt 1               # test.c:24:24
	movq	-32(%rbp), %rax
	.loc	1 24 30 is_stmt 0               # test.c:24:30
	movq	(%rax), %rax
	movq	%rax, -40(%rbp)                 # 8-byte Spill
	.loc	1 24 43                         # test.c:24:43
	movq	-32(%rbp), %rax
	.loc	1 24 49                         # test.c:24:49
	movq	(%rax), %rdi
	.loc	1 24 36                         # test.c:24:36
	callq	strlen
	movq	-40(%rbp), %rdi                 # 8-byte Reload
	movq	%rax, %rsi
	.loc	1 24 56                         # test.c:24:56
	movq	-16(%rbp), %rdx
	.loc	1 24 63                         # test.c:24:63
	movq	-24(%rbp), %rcx
	.loc	1 24 12                         # test.c:24:12
	callq	hashmap_sip
	.loc	1 24 5                          # test.c:24:5
	addq	$48, %rsp
	popq	%rbp
	.cfi_def_cfa %rsp, 8
	retq
.Ltmp5:
.Lfunc_end2:
	.size	user_hash, .Lfunc_end2-user_hash
	.cfi_endproc
                                        # -- End function
	.globl	main                            # -- Begin function main
	.p2align	4, 0x90
	.type	main,@function
main:                                   # @main
.Lfunc_begin3:
	.loc	1 27 0 is_stmt 1                # test.c:27:0
	.cfi_startproc
# %bb.0:
	pushq	%rbp
	.cfi_def_cfa_offset 16
	.cfi_offset %rbp, -16
	movq	%rsp, %rbp
	.cfi_def_cfa_register %rbp
	subq	$144, %rsp
	xorl	%eax, %eax
	movl	%eax, %ecx
.Ltmp6:
	.loc	1 31 27 prologue_end            # test.c:31:27
	movl	$16, %edi
	movq	%rcx, %rsi
	movq	%rcx, %rdx
	movabsq	$user_hash, %r8
	movabsq	$user_compare, %r9
	movq	$0, (%rsp)
	callq	hashmap_new
	.loc	1 31 21 is_stmt 0               # test.c:31:21
	movq	%rax, -8(%rbp)
	.loc	1 36 17 is_stmt 1               # test.c:36:17
	movq	-8(%rbp), %rdi
	.loc	1 36 36 is_stmt 0               # test.c:36:36
	movabsq	$.L.str.1, %rax
	movq	%rax, -24(%rbp)
	movl	$44, -16(%rbp)
	.loc	1 36 22                         # test.c:36:22
	leaq	-24(%rbp), %rsi
	.loc	1 36 5                          # test.c:36:5
	callq	hashmap_set
	.loc	1 37 17 is_stmt 1               # test.c:37:17
	movq	-8(%rbp), %rdi
	.loc	1 37 36 is_stmt 0               # test.c:37:36
	movabsq	$.L.str.2, %rax
	movq	%rax, -40(%rbp)
	movl	$68, -32(%rbp)
	.loc	1 37 22                         # test.c:37:22
	leaq	-40(%rbp), %rsi
	.loc	1 37 5                          # test.c:37:5
	callq	hashmap_set
	.loc	1 38 17 is_stmt 1               # test.c:38:17
	movq	-8(%rbp), %rdi
	.loc	1 38 36 is_stmt 0               # test.c:38:36
	movabsq	$.L.str.3, %rax
	movq	%rax, -56(%rbp)
	movl	$47, -48(%rbp)
	.loc	1 38 22                         # test.c:38:22
	leaq	-56(%rbp), %rsi
	.loc	1 38 5                          # test.c:38:5
	callq	hashmap_set
	.loc	1 42 5 is_stmt 1                # test.c:42:5
	movabsq	$.L.str.4, %rdi
	movb	$0, %al
	callq	printf
	.loc	1 43 24                         # test.c:43:24
	movq	-8(%rbp), %rdi
	.loc	1 43 43 is_stmt 0               # test.c:43:43
	movabsq	$.L.str.3, %rax
	movq	%rax, -80(%rbp)
	movl	$0, -72(%rbp)
	.loc	1 43 29                         # test.c:43:29
	leaq	-80(%rbp), %rsi
	.loc	1 43 12                         # test.c:43:12
	callq	hashmap_get
	.loc	1 43 10                         # test.c:43:10
	movq	%rax, -64(%rbp)
	.loc	1 44 27 is_stmt 1               # test.c:44:27
	movq	-64(%rbp), %rax
	.loc	1 44 33 is_stmt 0               # test.c:44:33
	movq	(%rax), %rsi
	.loc	1 44 39                         # test.c:44:39
	movq	-64(%rbp), %rax
	.loc	1 44 45                         # test.c:44:45
	movl	8(%rax), %edx
	.loc	1 44 5                          # test.c:44:5
	movabsq	$.L.str.5, %rdi
	movb	$0, %al
	callq	printf
	.loc	1 46 24 is_stmt 1               # test.c:46:24
	movq	-8(%rbp), %rdi
	.loc	1 46 43 is_stmt 0               # test.c:46:43
	movabsq	$.L.str.2, %rax
	movq	%rax, -96(%rbp)
	movl	$0, -88(%rbp)
	.loc	1 46 29                         # test.c:46:29
	leaq	-96(%rbp), %rsi
	.loc	1 46 12                         # test.c:46:12
	callq	hashmap_get
	.loc	1 46 10                         # test.c:46:10
	movq	%rax, -64(%rbp)
	.loc	1 47 27 is_stmt 1               # test.c:47:27
	movq	-64(%rbp), %rax
	.loc	1 47 33 is_stmt 0               # test.c:47:33
	movq	(%rax), %rsi
	.loc	1 47 39                         # test.c:47:39
	movq	-64(%rbp), %rax
	.loc	1 47 45                         # test.c:47:45
	movl	8(%rax), %edx
	.loc	1 47 5                          # test.c:47:5
	movabsq	$.L.str.5, %rdi
	movb	$0, %al
	callq	printf
	.loc	1 49 24 is_stmt 1               # test.c:49:24
	movq	-8(%rbp), %rdi
	.loc	1 49 43 is_stmt 0               # test.c:49:43
	movabsq	$.L.str.1, %rax
	movq	%rax, -112(%rbp)
	movl	$0, -104(%rbp)
	.loc	1 49 29                         # test.c:49:29
	leaq	-112(%rbp), %rsi
	.loc	1 49 12                         # test.c:49:12
	callq	hashmap_get
	.loc	1 49 10                         # test.c:49:10
	movq	%rax, -64(%rbp)
	.loc	1 50 27 is_stmt 1               # test.c:50:27
	movq	-64(%rbp), %rax
	.loc	1 50 33 is_stmt 0               # test.c:50:33
	movq	(%rax), %rsi
	.loc	1 50 39                         # test.c:50:39
	movq	-64(%rbp), %rax
	.loc	1 50 45                         # test.c:50:45
	movl	8(%rax), %edx
	.loc	1 50 5                          # test.c:50:5
	movabsq	$.L.str.5, %rdi
	movb	$0, %al
	callq	printf
	.loc	1 52 24 is_stmt 1               # test.c:52:24
	movq	-8(%rbp), %rdi
	.loc	1 52 43 is_stmt 0               # test.c:52:43
	movabsq	$.L.str.6, %rax
	movq	%rax, -128(%rbp)
	movl	$0, -120(%rbp)
	.loc	1 52 29                         # test.c:52:29
	leaq	-128(%rbp), %rsi
	.loc	1 52 12                         # test.c:52:12
	callq	hashmap_get
	.loc	1 52 10                         # test.c:52:10
	movq	%rax, -64(%rbp)
	.loc	1 53 20 is_stmt 1               # test.c:53:20
	movq	-64(%rbp), %rax
	cmpq	$0, %rax
	movabsq	$.L.str.8, %rax
	movabsq	$.L.str.9, %rsi
	cmovneq	%rax, %rsi
	.loc	1 53 5 is_stmt 0                # test.c:53:5
	movabsq	$.L.str.7, %rdi
	movb	$0, %al
	callq	printf
	.loc	1 55 5 is_stmt 1                # test.c:55:5
	movabsq	$.L.str.10, %rdi
	movb	$0, %al
	callq	printf
	xorl	%eax, %eax
	movl	%eax, %edx
	.loc	1 56 18                         # test.c:56:18
	movq	-8(%rbp), %rdi
	.loc	1 56 5 is_stmt 0                # test.c:56:5
	movabsq	$user_iter, %rsi
	callq	hashmap_scan
	.loc	1 58 18 is_stmt 1               # test.c:58:18
	movq	-8(%rbp), %rdi
	.loc	1 58 5 is_stmt 0                # test.c:58:5
	callq	hashmap_free
	xorl	%eax, %eax
	.loc	1 59 1 is_stmt 1                # test.c:59:1
	addq	$144, %rsp
	popq	%rbp
	.cfi_def_cfa %rsp, 8
	retq
.Ltmp7:
.Lfunc_end3:
	.size	main, .Lfunc_end3-main
	.cfi_endproc
                                        # -- End function
	.type	.L.str,@object                  # @.str
	.section	.rodata.str1.1,"aMS",@progbits,1
.L.str:
	.asciz	"%s (age=%d)\n"
	.size	.L.str, 13

	.type	.L.str.1,@object                # @.str.1
.L.str.1:
	.asciz	"Dale"
	.size	.L.str.1, 5

	.type	.L.str.2,@object                # @.str.2
.L.str.2:
	.asciz	"Roger"
	.size	.L.str.2, 6

	.type	.L.str.3,@object                # @.str.3
.L.str.3:
	.asciz	"Jane"
	.size	.L.str.3, 5

	.type	.L.str.4,@object                # @.str.4
.L.str.4:
	.asciz	"\n-- get some users --\n"
	.size	.L.str.4, 23

	.type	.L.str.5,@object                # @.str.5
.L.str.5:
	.asciz	"%s age=%d\n"
	.size	.L.str.5, 11

	.type	.L.str.6,@object                # @.str.6
.L.str.6:
	.asciz	"Tom"
	.size	.L.str.6, 4

	.type	.L.str.7,@object                # @.str.7
.L.str.7:
	.asciz	"%s\n"
	.size	.L.str.7, 4

	.type	.L.str.8,@object                # @.str.8
.L.str.8:
	.asciz	"exists"
	.size	.L.str.8, 7

	.type	.L.str.9,@object                # @.str.9
.L.str.9:
	.asciz	"not exists"
	.size	.L.str.9, 11

	.type	.L.str.10,@object               # @.str.10
.L.str.10:
	.asciz	"\n-- iterate over all users --\n"
	.size	.L.str.10, 31

	.file	2 "/usr/include/x86_64-linux-gnu/bits" "types.h"
	.file	3 "/usr/include/x86_64-linux-gnu/bits" "stdint-uintn.h"
	.section	".note.GNU-stack","",@progbits
	.addrsig
	.addrsig_sym user_compare
	.addrsig_sym strcmp
	.addrsig_sym user_iter
	.addrsig_sym printf
	.addrsig_sym user_hash
	.addrsig_sym hashmap_sip
	.addrsig_sym strlen
	.addrsig_sym hashmap_new
	.addrsig_sym hashmap_set
	.addrsig_sym hashmap_get
	.addrsig_sym hashmap_scan
	.addrsig_sym hashmap_free